target datalayout = "e-m:e-p270:32:32-p271:32:32-p272:64:64-i64:64-i128:128-f80:128-n8:16:32:64-S128"
target triple = "x86_64-pc-linux-gnu"

%"class.marisa::grimoire::io::Mapper" = type <{ ptr, ptr, i64, i64, i32, [4 x i8] }>
%"class.marisa::Exception" = type { %"class.std::exception", ptr, i32, i32, ptr }
%"class.std::exception" = type { ptr }

@.str = private unnamed_addr constant [142 x i8] c"generated/home/dtcxzyw/WorkSpace/Projects/compilers/llvm-opt-benchmark/bench/opencc/OpenCC/deps/marisa-0.2.6/lib/marisa/grimoire/io/mapper.cc\00", align 1
@_ZTIN6marisa9ExceptionE = linkonce_odr constant { ptr, ptr, ptr } { ptr getelementptr inbounds (ptr, ptr @_ZTVN10__cxxabiv120__si_class_type_infoE, i64 2), ptr @_ZTSN6marisa9ExceptionE, ptr @_ZTISt9exception }, comdat, align 8
@.str.5 = private unnamed_addr constant [177 x i8] c"generated/home/dtcxzyw/WorkSpace/Projects/compilers/llvm-opt-benchmark/bench/opencc/OpenCC/deps/marisa-0.2.6/lib/marisa/grimoire/io/mapper.cc:99: MARISA_STATE_ERROR: !is_open()\00", align 1
@.str.6 = private unnamed_addr constant [178 x i8] c"generated/home/dtcxzyw/WorkSpace/Projects/compilers/llvm-opt-benchmark/bench/opencc/OpenCC/deps/marisa-0.2.6/lib/marisa/grimoire/io/mapper.cc:100: MARISA_IO_ERROR: size > avail_\00", align 1
@_ZTVN6marisa9ExceptionE = linkonce_odr unnamed_addr constant { [5 x ptr] } { [5 x ptr] [ptr null, ptr @_ZTIN6marisa9ExceptionE, ptr @_ZNSt9exceptionD2Ev, ptr @_ZN6marisa9ExceptionD0Ev, ptr @_ZNK6marisa9Exception4whatEv] }, comdat, align 8
@_ZTVSt9exception = available_externally unnamed_addr constant { [5 x ptr] } { [5 x ptr] [ptr null, ptr @_ZTISt9exception, ptr @_ZNSt9exceptionD1Ev, ptr @_ZNSt9exceptionD0Ev, ptr @_ZNKSt9exception4whatEv] }, align 8

; Function Attrs: mustprogress nounwind uwtable
define linkonce_odr void @_ZNSt9exceptionC2Ev(ptr noundef nonnull align 8 dereferenceable(8) %0) unnamed_addr #0 comdat align 2 {
  %2 = alloca ptr, align 8
  store ptr %0, ptr %2, align 8, !tbaa !42
  %3 = load ptr, ptr %2, align 8
  store ptr getelementptr inbounds inrange(-16, 24) ({ [5 x ptr] }, ptr @_ZTVSt9exception, i32 0, i32 0, i32 2), ptr %3, align 8, !tbaa !23
  ret void
}

; Function Attrs: mustprogress nounwind uwtable
define linkonce_odr void @_ZN6marisa9ExceptionC2EPKci18marisa_error_code_S2_(ptr noundef nonnull align 8 dereferenceable(32) %0, ptr noundef %1, i32 noundef %2, i32 noundef %3, ptr noundef %4) unnamed_addr #0 comdat align 2 {
  %6 = alloca ptr, align 8
  %7 = alloca ptr, align 8
  %8 = alloca i32, align 4
  %9 = alloca i32, align 4
  %10 = alloca ptr, align 8
  store ptr %0, ptr %6, align 8, !tbaa !18
  store ptr %1, ptr %7, align 8, !tbaa !16
  store i32 %2, ptr %8, align 4, !tbaa !20
  store i32 %3, ptr %9, align 4, !tbaa !21
  store ptr %4, ptr %10, align 8, !tbaa !16
  %11 = load ptr, ptr %6, align 8
  call void @_ZNSt9exceptionC2Ev(ptr noundef nonnull align 8 dereferenceable(8) %11) #8
  store ptr getelementptr inbounds inrange(-16, 24) ({ [5 x ptr] }, ptr @_ZTVN6marisa9ExceptionE, i32 0, i32 0, i32 2), ptr %11, align 8, !tbaa !23
  %12 = getelementptr inbounds nuw %"class.marisa::Exception", ptr %11, i32 0, i32 1
  %13 = load ptr, ptr %7, align 8, !tbaa !16
  store ptr %13, ptr %12, align 8, !tbaa !25
  %14 = getelementptr inbounds nuw %"class.marisa::Exception", ptr %11, i32 0, i32 2
  %15 = load i32, ptr %8, align 4, !tbaa !20
  store i32 %15, ptr %14, align 8, !tbaa !28
  %16 = getelementptr inbounds nuw %"class.marisa::Exception", ptr %11, i32 0, i32 3
  %17 = load i32, ptr %9, align 4, !tbaa !21
  store i32 %17, ptr %16, align 4, !tbaa !29
  %18 = getelementptr inbounds nuw %"class.marisa::Exception", ptr %11, i32 0, i32 4
  %19 = load ptr, ptr %10, align 8, !tbaa !16
  store ptr %19, ptr %18, align 8, !tbaa !30
  ret void
}

; Function Attrs: mustprogress nounwind uwtable
define noundef zeroext i1 @_ZNK6marisa8grimoire2io6Mapper7is_openEv(ptr noundef nonnull align 8 dereferenceable(36) %0) #0 align 2 {
  %2 = alloca ptr, align 8
  store ptr %0, ptr %2, align 8, !tbaa !3
  %3 = load ptr, ptr %2, align 8
  %4 = getelementptr inbounds nuw %"class.marisa::grimoire::io::Mapper", ptr %3, i32 0, i32 0
  %5 = load ptr, ptr %4, align 8, !tbaa !8
  %6 = icmp ne ptr %5, null
  ret i1 %6
}

; Function Attrs: mustprogress uwtable
define noundef ptr @_ZN6marisa8grimoire2io6Mapper8map_dataEm(ptr noundef nonnull align 8 dereferenceable(36) %0, i64 noundef %1) #4 align 2 personality ptr @__gxx_personality_v0 {
  %3 = alloca ptr, align 8
  %4 = alloca i64, align 8
  %5 = alloca ptr, align 8
  %6 = alloca i1, align 1
  %7 = alloca ptr, align 8
  %8 = alloca i32, align 4
  %9 = alloca ptr, align 8
  %10 = alloca i1, align 1
  %11 = alloca ptr, align 8
  store ptr %0, ptr %3, align 8, !tbaa !3
  store i64 %1, ptr %4, align 8, !tbaa !35
  %12 = load ptr, ptr %3, align 8
  %13 = call noundef zeroext i1 @_ZNK6marisa8grimoire2io6Mapper7is_openEv(ptr noundef nonnull align 8 dereferenceable(36) %12)
  store i1 false, ptr %6, align 1
  br i1 %13, label %18, label %14

14:                                               ; preds = %2
  %15 = call ptr @__cxa_allocate_exception(i64 32) #8
  store ptr %15, ptr %5, align 8
  store i1 true, ptr %6, align 1
  invoke void @_ZN6marisa9ExceptionC2EPKci18marisa_error_code_S2_(ptr noundef nonnull align 8 dereferenceable(32) %15, ptr noundef @.str, i32 noundef 99, i32 noundef 1, ptr noundef @.str.5)
          to label %16 unwind label %39

16:                                               ; preds = %14
  call void @__cxa_throw(ptr %15, ptr @_ZTIN6marisa9ExceptionE, ptr @_ZNSt9exceptionD2Ev) #10
  unreachable

17:                                               ; No predecessors!
  br label %18

18:                                               ; preds = %17, %2
  %19 = load i64, ptr %4, align 8, !tbaa !35
  %20 = getelementptr inbounds nuw %"class.marisa::grimoire::io::Mapper", ptr %12, i32 0, i32 2
  %21 = load i64, ptr %20, align 8, !tbaa !13
  %22 = icmp ugt i64 %19, %21
  store i1 false, ptr %10, align 1
  br i1 %22, label %23, label %27

23:                                               ; preds = %18
  %24 = call ptr @__cxa_allocate_exception(i64 32) #8
  store ptr %24, ptr %9, align 8
  store i1 true, ptr %10, align 1
  invoke void @_ZN6marisa9ExceptionC2EPKci18marisa_error_code_S2_(ptr noundef nonnull align 8 dereferenceable(32) %24, ptr noundef @.str, i32 noundef 100, i32 noundef 9, ptr noundef @.str.6)
          to label %25 unwind label %47

25:                                               ; preds = %23
  call void @__cxa_throw(ptr %24, ptr @_ZTIN6marisa9ExceptionE, ptr @_ZNSt9exceptionD2Ev) #10
  unreachable

26:                                               ; No predecessors!
  br label %27

27:                                               ; preds = %26, %18
  call void @llvm.lifetime.start.p0(i64 8, ptr %11) #8
  %28 = getelementptr inbounds nuw %"class.marisa::grimoire::io::Mapper", ptr %12, i32 0, i32 0
  %29 = load ptr, ptr %28, align 8, !tbaa !8
  store ptr %29, ptr %11, align 8, !tbaa !16
  %30 = load ptr, ptr %11, align 8, !tbaa !16
  %31 = load i64, ptr %4, align 8, !tbaa !35
  %32 = getelementptr inbounds nuw i8, ptr %30, i64 %31
  %33 = getelementptr inbounds nuw %"class.marisa::grimoire::io::Mapper", ptr %12, i32 0, i32 0
  store ptr %32, ptr %33, align 8, !tbaa !8
  %34 = load i64, ptr %4, align 8, !tbaa !35
  %35 = getelementptr inbounds nuw %"class.marisa::grimoire::io::Mapper", ptr %12, i32 0, i32 2
  %36 = load i64, ptr %35, align 8, !tbaa !13
  %37 = sub i64 %36, %34
  store i64 %37, ptr %35, align 8, !tbaa !13
  %38 = load ptr, ptr %11, align 8, !tbaa !16
  call void @llvm.lifetime.end.p0(i64 8, ptr %11) #8
  ret ptr %38

39:                                               ; preds = %14
  %40 = landingpad { ptr, i32 }
          cleanup
  %41 = extractvalue { ptr, i32 } %40, 0
  store ptr %41, ptr %7, align 8
  %42 = extractvalue { ptr, i32 } %40, 1
  store i32 %42, ptr %8, align 4
  %43 = load i1, ptr %6, align 1
  br i1 %43, label %44, label %46

44:                                               ; preds = %39
  %45 = load ptr, ptr %5, align 8
  call void @__cxa_free_exception(ptr %45) #8
  br label %46

46:                                               ; preds = %44, %39
  br label %55

47:                                               ; preds = %23
  %48 = landingpad { ptr, i32 }
          cleanup
  %49 = extractvalue { ptr, i32 } %48, 0
  store ptr %49, ptr %7, align 8
  %50 = extractvalue { ptr, i32 } %48, 1
  store i32 %50, ptr %8, align 4
  %51 = load i1, ptr %10, align 1
  br i1 %51, label %52, label %54

52:                                               ; preds = %47
  %53 = load ptr, ptr %9, align 8
  call void @__cxa_free_exception(ptr %53) #8
  br label %54

54:                                               ; preds = %52, %47
  br label %55

55:                                               ; preds = %54, %46
  %56 = load ptr, ptr %7, align 8
  %57 = load i32, ptr %8, align 4
  %58 = insertvalue { ptr, i32 } poison, ptr %56, 0
  %59 = insertvalue { ptr, i32 } %58, i32 %57, 1
  resume { ptr, i32 } %59
}